target datalayout = "e-m:e-p270:32:32-p271:32:32-p272:64:64-i64:64-i128:128-f80:128-n8:16:32:64-S128"
target triple = "x86_64-pc-linux-gnu"

; Function Attrs: nounwind uwtable
define void @ff_h264_chroma_dc_dequant_idct_10_c(ptr noundef %0, i32 noundef %1) #0 {
  %3 = alloca ptr, align 8
  %4 = alloca i32, align 4
  %5 = alloca i32, align 4
  %6 = alloca i32, align 4
  %7 = alloca i32, align 4
  %8 = alloca i32, align 4
  %9 = alloca i32, align 4
  %10 = alloca i32, align 4
  %11 = alloca i32, align 4
  %12 = alloca ptr, align 8
  store ptr %0, ptr %3, align 8, !tbaa !9
  store i32 %1, ptr %4, align 4, !tbaa !11
  call void @llvm.lifetime.start.p0(i64 4, ptr %5) #4
  store i32 32, ptr %5, align 4, !tbaa !11
  call void @llvm.lifetime.start.p0(i64 4, ptr %6) #4
  store i32 16, ptr %6, align 4, !tbaa !11
  call void @llvm.lifetime.start.p0(i64 4, ptr %7) #4
  call void @llvm.lifetime.start.p0(i64 4, ptr %8) #4
  call void @llvm.lifetime.start.p0(i64 4, ptr %9) #4
  call void @llvm.lifetime.start.p0(i64 4, ptr %10) #4
  call void @llvm.lifetime.start.p0(i64 4, ptr %11) #4
  call void @llvm.lifetime.start.p0(i64 8, ptr %12) #4
  %13 = load ptr, ptr %3, align 8, !tbaa !9
  store ptr %13, ptr %12, align 8, !tbaa !25
  %14 = load ptr, ptr %12, align 8, !tbaa !25
  %15 = getelementptr inbounds i32, ptr %14, i64 0
  %16 = load i32, ptr %15, align 4, !tbaa !11
  store i32 %16, ptr %7, align 4, !tbaa !11
  %17 = load ptr, ptr %12, align 8, !tbaa !25
  %18 = getelementptr inbounds i32, ptr %17, i64 16
  %19 = load i32, ptr %18, align 4, !tbaa !11
  store i32 %19, ptr %8, align 4, !tbaa !11
  %20 = load ptr, ptr %12, align 8, !tbaa !25
  %21 = getelementptr inbounds i32, ptr %20, i64 32
  %22 = load i32, ptr %21, align 4, !tbaa !11
  store i32 %22, ptr %9, align 4, !tbaa !11
  %23 = load ptr, ptr %12, align 8, !tbaa !25
  %24 = getelementptr inbounds i32, ptr %23, i64 48
  %25 = load i32, ptr %24, align 4, !tbaa !11
  store i32 %25, ptr %10, align 4, !tbaa !11
  %26 = load i32, ptr %7, align 4, !tbaa !11
  %27 = load i32, ptr %8, align 4, !tbaa !11
  %28 = sub i32 %26, %27
  store i32 %28, ptr %11, align 4, !tbaa !11
  %29 = load i32, ptr %7, align 4, !tbaa !11
  %30 = load i32, ptr %8, align 4, !tbaa !11
  %31 = add i32 %29, %30
  store i32 %31, ptr %7, align 4, !tbaa !11
  %32 = load i32, ptr %9, align 4, !tbaa !11
  %33 = load i32, ptr %10, align 4, !tbaa !11
  %34 = sub i32 %32, %33
  store i32 %34, ptr %8, align 4, !tbaa !11
  %35 = load i32, ptr %9, align 4, !tbaa !11
  %36 = load i32, ptr %10, align 4, !tbaa !11
  %37 = add i32 %35, %36
  store i32 %37, ptr %9, align 4, !tbaa !11
  %38 = load i32, ptr %7, align 4, !tbaa !11
  %39 = load i32, ptr %9, align 4, !tbaa !11
  %40 = add i32 %38, %39
  %41 = load i32, ptr %4, align 4, !tbaa !11
  %42 = mul i32 %40, %41
  %43 = ashr i32 %42, 7
  %44 = load ptr, ptr %12, align 8, !tbaa !25
  %45 = getelementptr inbounds i32, ptr %44, i64 0
  store i32 %43, ptr %45, align 4, !tbaa !11
  %46 = load i32, ptr %11, align 4, !tbaa !11
  %47 = load i32, ptr %8, align 4, !tbaa !11
  %48 = add i32 %46, %47
  %49 = load i32, ptr %4, align 4, !tbaa !11
  %50 = mul i32 %48, %49
  %51 = ashr i32 %50, 7
  %52 = load ptr, ptr %12, align 8, !tbaa !25
  %53 = getelementptr inbounds i32, ptr %52, i64 16
  store i32 %51, ptr %53, align 4, !tbaa !11
  %54 = load i32, ptr %7, align 4, !tbaa !11
  %55 = load i32, ptr %9, align 4, !tbaa !11
  %56 = sub i32 %54, %55
  %57 = load i32, ptr %4, align 4, !tbaa !11
  %58 = mul i32 %56, %57
  %59 = ashr i32 %58, 7
  %60 = load ptr, ptr %12, align 8, !tbaa !25
  %61 = getelementptr inbounds i32, ptr %60, i64 32
  store i32 %59, ptr %61, align 4, !tbaa !11
  %62 = load i32, ptr %11, align 4, !tbaa !11
  %63 = load i32, ptr %8, align 4, !tbaa !11
  %64 = sub i32 %62, %63
  %65 = load i32, ptr %4, align 4, !tbaa !11
  %66 = mul i32 %64, %65
  %67 = ashr i32 %66, 7
  %68 = load ptr, ptr %12, align 8, !tbaa !25
  %69 = getelementptr inbounds i32, ptr %68, i64 48
  store i32 %67, ptr %69, align 4, !tbaa !11
  call void @llvm.lifetime.end.p0(i64 8, ptr %12) #4
  call void @llvm.lifetime.end.p0(i64 4, ptr %11) #4
  call void @llvm.lifetime.end.p0(i64 4, ptr %10) #4
  call void @llvm.lifetime.end.p0(i64 4, ptr %9) #4
  call void @llvm.lifetime.end.p0(i64 4, ptr %8) #4
  call void @llvm.lifetime.end.p0(i64 4, ptr %7) #4
  call void @llvm.lifetime.end.p0(i64 4, ptr %6) #4
  call void @llvm.lifetime.end.p0(i64 4, ptr %5) #4
  ret void
}